; Function Attrs: mustprogress nofree norecurse nosync nounwind willreturn memory(argmem: write) uwtable
define dso_local noundef zeroext i1 @_ZN5cmsys31SystemInformationImplementation26RetrieveCPUPowerManagementEv(ptr noundef nonnull writeonly align 8 captures(none) dereferenceable(457) initializes((52, 55)) %0) local_unnamed_addr #15 align 2 {
  %2 = getelementptr inbounds nuw i8, ptr %0, i64 52
  %3 = getelementptr inbounds nuw i8, ptr %0, i64 53
  store i8 0, ptr %3, align 1, !tbaa !223
  store i8 0, ptr %2, align 4, !tbaa !224
  %4 = getelementptr inbounds nuw i8, ptr %0, i64 54
  store i8 0, ptr %4, align 2, !tbaa !225
  ret i1 false
}